; Function Attrs: mustprogress uwtable
define hidden void @_ZN12fpa_rewriter11updt_paramsERK10params_ref(ptr nocapture noundef nonnull writeonly align 8 dereferenceable(73) %this, ptr noundef nonnull align 8 dereferenceable(8) %_p) local_unnamed_addr #3 align 2 personality ptr @__gxx_personality_v0 {
entry:
  %p = alloca %struct.fpa_rewriter_params, align 8
  store ptr %_p, ptr %p, align 8
  %g.i = getelementptr inbounds i8, ptr %p, i64 8
  call void @_ZN7gparams10get_moduleEPKc(ptr nonnull sret(%class.params_ref) align 8 %g.i, ptr noundef nonnull @.str.2)
  %0 = load ptr, ptr %p, align 8
  %call.i2 = invoke noundef zeroext i1 @_ZNK10params_ref8get_boolEPKcRKS_b(ptr noundef nonnull align 8 dereferenceable(8) %0, ptr noundef nonnull @.str.3, ptr noundef nonnull align 8 dereferenceable(8) %g.i, i1 noundef zeroext false)
          to label %invoke.cont unwind label %lpad

invoke.cont:                                      ; preds = %entry
  %m_hi_fp_unspecified = getelementptr inbounds i8, ptr %this, i64 72
  %frombool = zext i1 %call.i2 to i8
  store i8 %frombool, ptr %m_hi_fp_unspecified, align 8
  call void @_ZN10params_refD1Ev(ptr noundef nonnull align 8 dereferenceable(8) %g.i) #13
  ret void

lpad:                                             ; preds = %entry
  %1 = landingpad { ptr, i32 }
          cleanup
  call void @_ZN10params_refD1Ev(ptr noundef nonnull align 8 dereferenceable(8) %g.i) #13
  resume { ptr, i32 } %1
}